target datalayout = "e-m:e-p270:32:32-p271:32:32-p272:64:64-i64:64-i128:128-f80:128-n8:16:32:64-S128"
target triple = "x86_64-pc-linux-gnu"

%struct._tvbparse_wanted_t = type { i32, ptr, %union.anon, i32, i32, i32, ptr, ptr, ptr }
%union.anon = type { %struct.anon.2 }
%struct.anon.2 = type { ptr, ptr, ptr }
%struct._tvbparse_t = type { ptr, ptr, i32, i32, ptr, ptr, i32 }
%struct._tvbparse_elem_t = type { i32, ptr, ptr, i32, i32, ptr, ptr, ptr, ptr, ptr }

; Function Attrs: null_pointer_is_valid sspstrong uwtable
define internal void @execute_callbacks(ptr noundef %0, ptr noundef %1) #0 {
  %3 = alloca ptr, align 8
  %4 = alloca ptr, align 8
  %5 = alloca ptr, align 8
  store ptr %0, ptr %3, align 8
  store ptr %1, ptr %4, align 8
  call void @llvm.lifetime.start.p0(i64 8, ptr %5) #11
  %6 = load ptr, ptr %3, align 8
  %7 = getelementptr inbounds nuw %struct._tvbparse_t, ptr %6, i32 0, i32 0
  %8 = load ptr, ptr %7, align 8
  %9 = call noalias ptr @wmem_list_new(ptr noundef %8)
  store ptr %9, ptr %5, align 8
  br label %10

10:                                               ; preds = %110, %40, %2
  %11 = load ptr, ptr %4, align 8
  %12 = icmp ne ptr %11, null
  br i1 %12, label %13, label %111

13:                                               ; preds = %10
  %14 = load ptr, ptr %4, align 8
  %15 = getelementptr inbounds nuw %struct._tvbparse_elem_t, ptr %14, i32 0, i32 9
  %16 = load ptr, ptr %15, align 8
  %17 = getelementptr inbounds nuw %struct._tvbparse_wanted_t, ptr %16, i32 0, i32 7
  %18 = load ptr, ptr %17, align 8
  %19 = icmp ne ptr %18, null
  br i1 %19, label %20, label %35

20:                                               ; preds = %13
  %21 = load ptr, ptr %4, align 8
  %22 = getelementptr inbounds nuw %struct._tvbparse_elem_t, ptr %21, i32 0, i32 9
  %23 = load ptr, ptr %22, align 8
  %24 = getelementptr inbounds nuw %struct._tvbparse_wanted_t, ptr %23, i32 0, i32 7
  %25 = load ptr, ptr %24, align 8
  %26 = load ptr, ptr %3, align 8
  %27 = getelementptr inbounds nuw %struct._tvbparse_t, ptr %26, i32 0, i32 4
  %28 = load ptr, ptr %27, align 8
  %29 = load ptr, ptr %4, align 8
  %30 = getelementptr inbounds nuw %struct._tvbparse_elem_t, ptr %29, i32 0, i32 9
  %31 = load ptr, ptr %30, align 8
  %32 = getelementptr inbounds nuw %struct._tvbparse_wanted_t, ptr %31, i32 0, i32 6
  %33 = load ptr, ptr %32, align 8
  %34 = load ptr, ptr %4, align 8
  call void %25(ptr noundef %28, ptr noundef %33, ptr noundef %34)
  br label %35

35:                                               ; preds = %20, %13
  %36 = load ptr, ptr %4, align 8
  %37 = getelementptr inbounds nuw %struct._tvbparse_elem_t, ptr %36, i32 0, i32 6
  %38 = load ptr, ptr %37, align 8
  %39 = icmp ne ptr %38, null
  br i1 %39, label %40, label %46

40:                                               ; preds = %35
  %41 = load ptr, ptr %5, align 8
  %42 = load ptr, ptr %4, align 8
  call void @wmem_list_prepend(ptr noundef %41, ptr noundef %42)
  %43 = load ptr, ptr %4, align 8
  %44 = getelementptr inbounds nuw %struct._tvbparse_elem_t, ptr %43, i32 0, i32 6
  %45 = load ptr, ptr %44, align 8
  store ptr %45, ptr %4, align 8
  br label %10, !llvm.loop !23

46:                                               ; preds = %35
  %47 = load ptr, ptr %4, align 8
  %48 = getelementptr inbounds nuw %struct._tvbparse_elem_t, ptr %47, i32 0, i32 9
  %49 = load ptr, ptr %48, align 8
  %50 = getelementptr inbounds nuw %struct._tvbparse_wanted_t, ptr %49, i32 0, i32 8
  %51 = load ptr, ptr %50, align 8
  %52 = icmp ne ptr %51, null
  br i1 %52, label %53, label %68

53:                                               ; preds = %46
  %54 = load ptr, ptr %4, align 8
  %55 = getelementptr inbounds nuw %struct._tvbparse_elem_t, ptr %54, i32 0, i32 9
  %56 = load ptr, ptr %55, align 8
  %57 = getelementptr inbounds nuw %struct._tvbparse_wanted_t, ptr %56, i32 0, i32 8
  %58 = load ptr, ptr %57, align 8
  %59 = load ptr, ptr %3, align 8
  %60 = getelementptr inbounds nuw %struct._tvbparse_t, ptr %59, i32 0, i32 4
  %61 = load ptr, ptr %60, align 8
  %62 = load ptr, ptr %4, align 8
  %63 = getelementptr inbounds nuw %struct._tvbparse_elem_t, ptr %62, i32 0, i32 9
  %64 = load ptr, ptr %63, align 8
  %65 = getelementptr inbounds nuw %struct._tvbparse_wanted_t, ptr %64, i32 0, i32 6
  %66 = load ptr, ptr %65, align 8
  %67 = load ptr, ptr %4, align 8
  call void %58(ptr noundef %61, ptr noundef %66, ptr noundef %67)
  br label %68

68:                                               ; preds = %53, %46
  br label %69

69:                                               ; preds = %68
  %70 = load ptr, ptr %4, align 8
  %71 = getelementptr inbounds nuw %struct._tvbparse_elem_t, ptr %70, i32 0, i32 7
  %72 = load ptr, ptr %71, align 8
  store ptr %72, ptr %4, align 8
  br label %73

73:                                               ; preds = %106, %69
  %74 = load ptr, ptr %4, align 8
  %75 = icmp ne ptr %74, null
  br i1 %75, label %80, label %76

76:                                               ; preds = %73
  %77 = load ptr, ptr %5, align 8
  %78 = call i32 @wmem_list_count(ptr noundef %77)
  %79 = icmp ugt i32 %78, 0
  br label %80

80:                                               ; preds = %76, %73
  %81 = phi i1 [ false, %73 ], [ %79, %76 ]
  br i1 %81, label %82, label %110

82:                                               ; preds = %80
  %83 = load ptr, ptr %5, align 8
  %84 = call ptr @wmem_stack_pop(ptr noundef %83)
  store ptr %84, ptr %4, align 8
  %85 = load ptr, ptr %4, align 8
  %86 = getelementptr inbounds nuw %struct._tvbparse_elem_t, ptr %85, i32 0, i32 9
  %87 = load ptr, ptr %86, align 8
  %88 = getelementptr inbounds nuw %struct._tvbparse_wanted_t, ptr %87, i32 0, i32 8
  %89 = load ptr, ptr %88, align 8
  %90 = icmp ne ptr %89, null
  br i1 %90, label %91, label %106

91:                                               ; preds = %82
  %92 = load ptr, ptr %4, align 8
  %93 = getelementptr inbounds nuw %struct._tvbparse_elem_t, ptr %92, i32 0, i32 9
  %94 = load ptr, ptr %93, align 8
  %95 = getelementptr inbounds nuw %struct._tvbparse_wanted_t, ptr %94, i32 0, i32 8
  %96 = load ptr, ptr %95, align 8
  %97 = load ptr, ptr %3, align 8
  %98 = getelementptr inbounds nuw %struct._tvbparse_t, ptr %97, i32 0, i32 4
  %99 = load ptr, ptr %98, align 8
  %100 = load ptr, ptr %4, align 8
  %101 = getelementptr inbounds nuw %struct._tvbparse_elem_t, ptr %100, i32 0, i32 9
  %102 = load ptr, ptr %101, align 8
  %103 = getelementptr inbounds nuw %struct._tvbparse_wanted_t, ptr %102, i32 0, i32 6
  %104 = load ptr, ptr %103, align 8
  %105 = load ptr, ptr %4, align 8
  call void %96(ptr noundef %99, ptr noundef %104, ptr noundef %105)
  br label %106

106:                                              ; preds = %91, %82
  %107 = load ptr, ptr %4, align 8
  %108 = getelementptr inbounds nuw %struct._tvbparse_elem_t, ptr %107, i32 0, i32 7
  %109 = load ptr, ptr %108, align 8
  store ptr %109, ptr %4, align 8
  br label %73, !llvm.loop !24

110:                                              ; preds = %80
  br label %10, !llvm.loop !23

111:                                              ; preds = %10
  call void @llvm.lifetime.end.p0(i64 8, ptr %5) #11
  ret void
}