; Function Attrs: null_pointer_is_valid sspstrong uwtable
define internal fastcc void @execute_callbacks(ptr noundef readonly captures(none) %0, ptr noundef %1) unnamed_addr #0 {
  %3 = load ptr, ptr %0, align 8
  %4 = tail call noalias ptr @wmem_list_new(ptr noundef %3)
  %.not41 = icmp eq ptr %1, null
  br i1 %.not41, label %._crit_edge, label %.lr.ph43

.lr.ph43:                                         ; preds = %2
  %5 = getelementptr inbounds nuw i8, ptr %0, i64 24
  br label %6

6:                                                ; preds = %.lr.ph43, %.backedge
  %.042 = phi ptr [ %1, %.lr.ph43 ], [ %.0.be, %.backedge ]
  %7 = getelementptr inbounds nuw i8, ptr %.042, i64 64
  %8 = load ptr, ptr %7, align 8
  %9 = getelementptr inbounds nuw i8, ptr %8, i64 64
  %10 = load ptr, ptr %9, align 8
  %.not29 = icmp eq ptr %10, null
  br i1 %.not29, label %15, label %11

11:                                               ; preds = %6
  %12 = load ptr, ptr %5, align 8
  %13 = getelementptr inbounds nuw i8, ptr %8, i64 56
  %14 = load ptr, ptr %13, align 8
  tail call void %10(ptr noundef %12, ptr noundef %14, ptr noundef nonnull %.042)
  br label %15

15:                                               ; preds = %11, %6
  %16 = getelementptr inbounds nuw i8, ptr %.042, i64 40
  %17 = load ptr, ptr %16, align 8
  %.not30 = icmp eq ptr %17, null
  br i1 %.not30, label %20, label %18

18:                                               ; preds = %15
  tail call void @wmem_list_prepend(ptr noundef %4, ptr noundef nonnull %.042)
  %19 = load ptr, ptr %16, align 8
  br label %.backedge

.backedge:                                        ; preds = %40, %28, %18
  %.0.be = phi ptr [ %19, %18 ], [ %.136, %28 ], [ %.1, %40 ]
  %.not = icmp eq ptr %.0.be, null
  br i1 %.not, label %._crit_edge, label %6, !llvm.loop !19

20:                                               ; preds = %15
  %21 = load ptr, ptr %7, align 8
  %22 = getelementptr inbounds nuw i8, ptr %21, i64 72
  %23 = load ptr, ptr %22, align 8
  %.not31 = icmp eq ptr %23, null
  br i1 %.not31, label %28, label %24

24:                                               ; preds = %20
  %25 = load ptr, ptr %5, align 8
  %26 = getelementptr inbounds nuw i8, ptr %21, i64 56
  %27 = load ptr, ptr %26, align 8
  tail call void %23(ptr noundef %25, ptr noundef %27, ptr noundef nonnull %.042)
  br label %28

28:                                               ; preds = %20, %24
  %.1.in35 = getelementptr inbounds nuw i8, ptr %.042, i64 48
  %.136 = load ptr, ptr %.1.in35, align 8
  %.not3237 = icmp eq ptr %.136, null
  br i1 %.not3237, label %.lr.ph, label %.backedge

.lr.ph:                                           ; preds = %28, %40
  %29 = tail call i32 @wmem_list_count(ptr noundef %4)
  %.not33 = icmp eq i32 %29, 0
  br i1 %.not33, label %._crit_edge, label %30

30:                                               ; preds = %.lr.ph
  %31 = tail call ptr @wmem_stack_pop(ptr noundef %4)
  %32 = getelementptr inbounds nuw i8, ptr %31, i64 64
  %33 = load ptr, ptr %32, align 8
  %34 = getelementptr inbounds nuw i8, ptr %33, i64 72
  %35 = load ptr, ptr %34, align 8
  %.not34 = icmp eq ptr %35, null
  br i1 %.not34, label %40, label %36

36:                                               ; preds = %30
  %37 = load ptr, ptr %5, align 8
  %38 = getelementptr inbounds nuw i8, ptr %33, i64 56
  %39 = load ptr, ptr %38, align 8
  tail call void %35(ptr noundef %37, ptr noundef %39, ptr noundef %31)
  br label %40

40:                                               ; preds = %36, %30
  %.1.in = getelementptr inbounds nuw i8, ptr %31, i64 48
  %.1 = load ptr, ptr %.1.in, align 8
  %.not32 = icmp eq ptr %.1, null
  br i1 %.not32, label %.lr.ph, label %.backedge, !llvm.loop !20

._crit_edge:                                      ; preds = %.backedge, %.lr.ph, %2
  ret void
}